target datalayout = "e-m:e-p270:32:32-p271:32:32-p272:64:64-i64:64-i128:128-f80:128-n8:16:32:64-S128"
target triple = "x86_64-unknown-linux-gnu"

%"class.sat::literal" = type { i32 }
%"struct.sat::npn3_finder::quaternary" = type { %"class.sat::literal", %"class.sat::literal", %"class.sat::literal", %"class.sat::literal", ptr }

; Function Attrs: mustprogress nounwind uwtable
define linkonce_odr hidden void @_ZSt4swapIN3sat7literalEENSt9enable_ifIXsr6__and_ISt6__not_ISt15__is_tuple_likeIT_EESt21is_move_constructibleIS5_ESt18is_move_assignableIS5_EEE5valueEvE4typeERS5_SE_(ptr noundef nonnull align 4 dereferenceable(4) %__a, ptr noundef nonnull align 4 dereferenceable(4) %__b) #4 comdat {
entry:
  %__a.addr = alloca ptr, align 8
  %__b.addr = alloca ptr, align 8
  %__tmp = alloca %"class.sat::literal", align 4
  store ptr %__a, ptr %__a.addr, align 8
  store ptr %__b, ptr %__b.addr, align 8
  %0 = load ptr, ptr %__a.addr, align 8
  call void @llvm.memcpy.p0.p0.i64(ptr align 4 %__tmp, ptr align 4 %0, i64 4, i1 false)
  %1 = load ptr, ptr %__b.addr, align 8
  %2 = load ptr, ptr %__a.addr, align 8
  call void @llvm.memcpy.p0.p0.i64(ptr align 4 %2, ptr align 4 %1, i64 4, i1 false)
  %3 = load ptr, ptr %__b.addr, align 8
  call void @llvm.memcpy.p0.p0.i64(ptr align 4 %3, ptr align 4 %__tmp, i64 4, i1 false)
  ret void
}

; Function Attrs: mustprogress nounwind uwtable
define linkonce_odr hidden noundef i32 @_ZNK3sat7literal5indexEv(ptr noundef nonnull align 4 dereferenceable(4) %this) #4 comdat align 2 {
entry:
  %this.addr = alloca ptr, align 8
  store ptr %this, ptr %this.addr, align 8
  %this1 = load ptr, ptr %this.addr, align 8
  %m_val = getelementptr inbounds %"class.sat::literal", ptr %this1, i32 0, i32 0
  %0 = load i32, ptr %m_val, align 4
  ret i32 %0
}

; Function Attrs: mustprogress uwtable
define hidden void @_ZN3sat11npn3_finder10quaternaryC2ENS_7literalES2_S2_S2_PNS_6clauseE(ptr noundef nonnull align 8 dereferenceable(24) %this, i32 %_w.coerce, i32 %_x.coerce, i32 %_y.coerce, i32 %_z.coerce, ptr noundef %c) unnamed_addr #5 align 2 {
entry:
  %_w = alloca %"class.sat::literal", align 4
  %_x = alloca %"class.sat::literal", align 4
  %_y = alloca %"class.sat::literal", align 4
  %_z = alloca %"class.sat::literal", align 4
  %this.addr = alloca ptr, align 8
  %c.addr = alloca ptr, align 8
  %coerce.dive = getelementptr inbounds %"class.sat::literal", ptr %_w, i32 0, i32 0
  store i32 %_w.coerce, ptr %coerce.dive, align 4
  %coerce.dive1 = getelementptr inbounds %"class.sat::literal", ptr %_x, i32 0, i32 0
  store i32 %_x.coerce, ptr %coerce.dive1, align 4
  %coerce.dive2 = getelementptr inbounds %"class.sat::literal", ptr %_y, i32 0, i32 0
  store i32 %_y.coerce, ptr %coerce.dive2, align 4
  %coerce.dive3 = getelementptr inbounds %"class.sat::literal", ptr %_z, i32 0, i32 0
  store i32 %_z.coerce, ptr %coerce.dive3, align 4
  store ptr %this, ptr %this.addr, align 8
  store ptr %c, ptr %c.addr, align 8
  %this4 = load ptr, ptr %this.addr, align 8
  %w = getelementptr inbounds %"struct.sat::npn3_finder::quaternary", ptr %this4, i32 0, i32 0
  call void @llvm.memcpy.p0.p0.i64(ptr align 8 %w, ptr align 4 %_w, i64 4, i1 false)
  %x = getelementptr inbounds %"struct.sat::npn3_finder::quaternary", ptr %this4, i32 0, i32 1
  call void @llvm.memcpy.p0.p0.i64(ptr align 4 %x, ptr align 4 %_x, i64 4, i1 false)
  %y = getelementptr inbounds %"struct.sat::npn3_finder::quaternary", ptr %this4, i32 0, i32 2
  call void @llvm.memcpy.p0.p0.i64(ptr align 8 %y, ptr align 4 %_y, i64 4, i1 false)
  %z = getelementptr inbounds %"struct.sat::npn3_finder::quaternary", ptr %this4, i32 0, i32 3
  call void @llvm.memcpy.p0.p0.i64(ptr align 4 %z, ptr align 4 %_z, i64 4, i1 false)
  %orig = getelementptr inbounds %"struct.sat::npn3_finder::quaternary", ptr %this4, i32 0, i32 4
  %0 = load ptr, ptr %c.addr, align 8
  store ptr %0, ptr %orig, align 8
  %w5 = getelementptr inbounds %"struct.sat::npn3_finder::quaternary", ptr %this4, i32 0, i32 0
  %call = call noundef i32 @_ZNK3sat7literal5indexEv(ptr noundef nonnull align 4 dereferenceable(4) %w5)
  %x6 = getelementptr inbounds %"struct.sat::npn3_finder::quaternary", ptr %this4, i32 0, i32 1
  %call7 = call noundef i32 @_ZNK3sat7literal5indexEv(ptr noundef nonnull align 4 dereferenceable(4) %x6)
  %cmp = icmp ugt i32 %call, %call7
  br i1 %cmp, label %if.then, label %if.end

if.then:                                          ; preds = %entry
  %w8 = getelementptr inbounds %"struct.sat::npn3_finder::quaternary", ptr %this4, i32 0, i32 0
  %x9 = getelementptr inbounds %"struct.sat::npn3_finder::quaternary", ptr %this4, i32 0, i32 1
  call void @_ZSt4swapIN3sat7literalEENSt9enable_ifIXsr6__and_ISt6__not_ISt15__is_tuple_likeIT_EESt21is_move_constructibleIS5_ESt18is_move_assignableIS5_EEE5valueEvE4typeERS5_SE_(ptr noundef nonnull align 4 dereferenceable(4) %w8, ptr noundef nonnull align 4 dereferenceable(4) %x9) #3
  br label %if.end

if.end:                                           ; preds = %if.then, %entry
  %y10 = getelementptr inbounds %"struct.sat::npn3_finder::quaternary", ptr %this4, i32 0, i32 2
  %call11 = call noundef i32 @_ZNK3sat7literal5indexEv(ptr noundef nonnull align 4 dereferenceable(4) %y10)
  %z12 = getelementptr inbounds %"struct.sat::npn3_finder::quaternary", ptr %this4, i32 0, i32 3
  %call13 = call noundef i32 @_ZNK3sat7literal5indexEv(ptr noundef nonnull align 4 dereferenceable(4) %z12)
  %cmp14 = icmp ugt i32 %call11, %call13
  br i1 %cmp14, label %if.then15, label %if.end18

if.then15:                                        ; preds = %if.end
  %y16 = getelementptr inbounds %"struct.sat::npn3_finder::quaternary", ptr %this4, i32 0, i32 2
  %z17 = getelementptr inbounds %"struct.sat::npn3_finder::quaternary", ptr %this4, i32 0, i32 3
  call void @_ZSt4swapIN3sat7literalEENSt9enable_ifIXsr6__and_ISt6__not_ISt15__is_tuple_likeIT_EESt21is_move_constructibleIS5_ESt18is_move_assignableIS5_EEE5valueEvE4typeERS5_SE_(ptr noundef nonnull align 4 dereferenceable(4) %y16, ptr noundef nonnull align 4 dereferenceable(4) %z17) #3
  br label %if.end18

if.end18:                                         ; preds = %if.then15, %if.end
  %w19 = getelementptr inbounds %"struct.sat::npn3_finder::quaternary", ptr %this4, i32 0, i32 0
  %call20 = call noundef i32 @_ZNK3sat7literal5indexEv(ptr noundef nonnull align 4 dereferenceable(4) %w19)
  %y21 = getelementptr inbounds %"struct.sat::npn3_finder::quaternary", ptr %this4, i32 0, i32 2
  %call22 = call noundef i32 @_ZNK3sat7literal5indexEv(ptr noundef nonnull align 4 dereferenceable(4) %y21)
  %cmp23 = icmp ugt i32 %call20, %call22
  br i1 %cmp23, label %if.then24, label %if.end27

if.then24:                                        ; preds = %if.end18
  %w25 = getelementptr inbounds %"struct.sat::npn3_finder::quaternary", ptr %this4, i32 0, i32 0
  %y26 = getelementptr inbounds %"struct.sat::npn3_finder::quaternary", ptr %this4, i32 0, i32 2
  call void @_ZSt4swapIN3sat7literalEENSt9enable_ifIXsr6__and_ISt6__not_ISt15__is_tuple_likeIT_EESt21is_move_constructibleIS5_ESt18is_move_assignableIS5_EEE5valueEvE4typeERS5_SE_(ptr noundef nonnull align 4 dereferenceable(4) %w25, ptr noundef nonnull align 4 dereferenceable(4) %y26) #3
  br label %if.end27

if.end27:                                         ; preds = %if.then24, %if.end18
  %x28 = getelementptr inbounds %"struct.sat::npn3_finder::quaternary", ptr %this4, i32 0, i32 1
  %call29 = call noundef i32 @_ZNK3sat7literal5indexEv(ptr noundef nonnull align 4 dereferenceable(4) %x28)
  %z30 = getelementptr inbounds %"struct.sat::npn3_finder::quaternary", ptr %this4, i32 0, i32 3
  %call31 = call noundef i32 @_ZNK3sat7literal5indexEv(ptr noundef nonnull align 4 dereferenceable(4) %z30)
  %cmp32 = icmp ugt i32 %call29, %call31
  br i1 %cmp32, label %if.then33, label %if.end36

if.then33:                                        ; preds = %if.end27
  %x34 = getelementptr inbounds %"struct.sat::npn3_finder::quaternary", ptr %this4, i32 0, i32 1
  %z35 = getelementptr inbounds %"struct.sat::npn3_finder::quaternary", ptr %this4, i32 0, i32 3
  call void @_ZSt4swapIN3sat7literalEENSt9enable_ifIXsr6__and_ISt6__not_ISt15__is_tuple_likeIT_EESt21is_move_constructibleIS5_ESt18is_move_assignableIS5_EEE5valueEvE4typeERS5_SE_(ptr noundef nonnull align 4 dereferenceable(4) %x34, ptr noundef nonnull align 4 dereferenceable(4) %z35) #3
  br label %if.end36

if.end36:                                         ; preds = %if.then33, %if.end27
  %x37 = getelementptr inbounds %"struct.sat::npn3_finder::quaternary", ptr %this4, i32 0, i32 1
  %call38 = call noundef i32 @_ZNK3sat7literal5indexEv(ptr noundef nonnull align 4 dereferenceable(4) %x37)
  %y39 = getelementptr inbounds %"struct.sat::npn3_finder::quaternary", ptr %this4, i32 0, i32 2
  %call40 = call noundef i32 @_ZNK3sat7literal5indexEv(ptr noundef nonnull align 4 dereferenceable(4) %y39)
  %cmp41 = icmp ugt i32 %call38, %call40
  br i1 %cmp41, label %if.then42, label %if.end45

if.then42:                                        ; preds = %if.end36
  %x43 = getelementptr inbounds %"struct.sat::npn3_finder::quaternary", ptr %this4, i32 0, i32 1
  %y44 = getelementptr inbounds %"struct.sat::npn3_finder::quaternary", ptr %this4, i32 0, i32 2
  call void @_ZSt4swapIN3sat7literalEENSt9enable_ifIXsr6__and_ISt6__not_ISt15__is_tuple_likeIT_EESt21is_move_constructibleIS5_ESt18is_move_assignableIS5_EEE5valueEvE4typeERS5_SE_(ptr noundef nonnull align 4 dereferenceable(4) %x43, ptr noundef nonnull align 4 dereferenceable(4) %y44) #3
  br label %if.end45

if.end45:                                         ; preds = %if.then42, %if.end36
  ret void
}