; Function Attrs: mustprogress nofree norecurse nosync nounwind willreturn memory(argmem: write) uwtable
define hidden void @_ZN3sat11npn3_finder10quaternaryC2ENS_7literalES2_S2_S2_PNS_6clauseE(ptr nocapture noundef nonnull writeonly align 8 dereferenceable(24) %this, i32 %_w.coerce, i32 %_x.coerce, i32 %_y.coerce, i32 %_z.coerce, ptr noundef %c) unnamed_addr #3 align 2 {
entry:
  store i32 %_w.coerce, ptr %this, align 8
  %x = getelementptr inbounds i8, ptr %this, i64 4
  store i32 %_x.coerce, ptr %x, align 4
  %y = getelementptr inbounds i8, ptr %this, i64 8
  store i32 %_y.coerce, ptr %y, align 8
  %z = getelementptr inbounds i8, ptr %this, i64 12
  store i32 %_z.coerce, ptr %z, align 4
  %orig = getelementptr inbounds i8, ptr %this, i64 16
  store ptr %c, ptr %orig, align 8
  %cmp = icmp ugt i32 %_w.coerce, %_x.coerce
  br i1 %cmp, label %if.then, label %if.end

if.then:                                          ; preds = %entry
  store i32 %_x.coerce, ptr %this, align 8
  store i32 %_w.coerce, ptr %x, align 4
  br label %if.end

if.end:                                           ; preds = %if.then, %entry
  %0 = phi i32 [ %_w.coerce, %if.then ], [ %_x.coerce, %entry ]
  %1 = phi i32 [ %_x.coerce, %if.then ], [ %_w.coerce, %entry ]
  %cmp14 = icmp ugt i32 %_y.coerce, %_z.coerce
  br i1 %cmp14, label %if.then15, label %if.end18

if.then15:                                        ; preds = %if.end
  store i32 %_z.coerce, ptr %y, align 8
  store i32 %_y.coerce, ptr %z, align 4
  br label %if.end18

if.end18:                                         ; preds = %if.then15, %if.end
  %2 = phi i32 [ %_y.coerce, %if.then15 ], [ %_z.coerce, %if.end ]
  %3 = phi i32 [ %_z.coerce, %if.then15 ], [ %_y.coerce, %if.end ]
  %cmp23 = icmp ugt i32 %1, %3
  br i1 %cmp23, label %if.then24, label %if.end27

if.then24:                                        ; preds = %if.end18
  store i32 %3, ptr %this, align 8
  store i32 %1, ptr %y, align 8
  br label %if.end27

if.end27:                                         ; preds = %if.then24, %if.end18
  %4 = phi i32 [ %1, %if.then24 ], [ %3, %if.end18 ]
  %cmp32 = icmp ugt i32 %0, %2
  br i1 %cmp32, label %if.then33, label %if.end36

if.then33:                                        ; preds = %if.end27
  store i32 %2, ptr %x, align 4
  store i32 %0, ptr %z, align 4
  br label %if.end36

if.end36:                                         ; preds = %if.then33, %if.end27
  %5 = phi i32 [ %2, %if.then33 ], [ %0, %if.end27 ]
  %cmp41 = icmp ugt i32 %5, %4
  br i1 %cmp41, label %if.then42, label %if.end45

if.then42:                                        ; preds = %if.end36
  store i32 %4, ptr %x, align 4
  store i32 %5, ptr %y, align 8
  br label %if.end45

if.end45:                                         ; preds = %if.then42, %if.end36
  ret void
}